target datalayout = "e-m:e-p270:32:32-p271:32:32-p272:64:64-i64:64-i128:128-f80:128-n8:16:32:64-S128"
target triple = "x86_64-pc-linux-gnu"

%struct.PROV_XOR_CTX = type { ptr }
%struct.key2any_ctx_st = type { ptr, i32, i32, ptr, ptr, ptr }

@.str.1 = private unnamed_addr constant [11 x i8] c"xorhmacsig\00", align 1
@.str.2 = private unnamed_addr constant [31 x i8] c"../openssl/test/tls-provider.c\00", align 1
@.str.36 = private unnamed_addr constant [23 x i8] c"xorhmacsig PRIVATE KEY\00", align 1
@__func__.key2any_encode = private unnamed_addr constant [15 x i8] c"key2any_encode\00", align 1
@__func__.xorhmacsig_to_EncryptedPrivateKeyInfo_der_encode = private unnamed_addr constant [49 x i8] c"xorhmacsig_to_EncryptedPrivateKeyInfo_der_encode\00", align 1

; Function Attrs: nounwind uwtable
define internal i32 @key2any_encode(ptr noundef %0, ptr noundef %1, ptr noundef %2, ptr noundef %3, ptr noundef %4, ptr noundef %5, ptr noundef %6, ptr noundef %7, ptr noundef %8, ptr noundef %9) #0 {
  %11 = alloca ptr, align 8
  %12 = alloca ptr, align 8
  %13 = alloca ptr, align 8
  %14 = alloca ptr, align 8
  %15 = alloca ptr, align 8
  %16 = alloca ptr, align 8
  %17 = alloca ptr, align 8
  %18 = alloca ptr, align 8
  %19 = alloca ptr, align 8
  %20 = alloca ptr, align 8
  %21 = alloca i32, align 4
  %22 = alloca i32, align 4
  %23 = alloca ptr, align 8
  store ptr %0, ptr %11, align 8, !tbaa !71
  store ptr %1, ptr %12, align 8, !tbaa !79
  store ptr %2, ptr %13, align 8, !tbaa !13
  store ptr %3, ptr %14, align 8, !tbaa !30
  store ptr %4, ptr %15, align 8, !tbaa !30
  store ptr %5, ptr %16, align 8, !tbaa !13
  store ptr %6, ptr %17, align 8, !tbaa !13
  store ptr %7, ptr %18, align 8, !tbaa !13
  store ptr %8, ptr %19, align 8, !tbaa !13
  store ptr %9, ptr %20, align 8, !tbaa !13
  call void @llvm.lifetime.start.p0(i64 4, ptr %21) #8
  store i32 0, ptr %21, align 4, !tbaa !27
  call void @llvm.lifetime.start.p0(i64 4, ptr %22) #8
  %24 = load ptr, ptr %14, align 8, !tbaa !30
  %25 = call i32 @OBJ_sn2nid(ptr noundef %24)
  store i32 %25, ptr %22, align 4, !tbaa !27
  %26 = load ptr, ptr %13, align 8, !tbaa !13
  %27 = icmp eq ptr %26, null
  br i1 %27, label %31, label %28

28:                                               ; preds = %10
  %29 = load i32, ptr %22, align 4, !tbaa !27
  %30 = icmp sle i32 %29, 0
  br i1 %30, label %31, label %32

31:                                               ; preds = %28, %10
  call void @ERR_new()
  call void @ERR_set_debug(ptr noundef @.str.2, i32 noundef 1843, ptr noundef @__func__.key2any_encode)
  call void (i32, i32, ptr, ...) @ERR_set_error(i32 noundef 128, i32 noundef 786690, ptr noundef null)
  br label %66

32:                                               ; preds = %28
  %33 = load ptr, ptr %16, align 8, !tbaa !13
  %34 = icmp ne ptr %33, null
  br i1 %34, label %35, label %64

35:                                               ; preds = %32
  call void @llvm.lifetime.start.p0(i64 8, ptr %23) #8
  %36 = load ptr, ptr %11, align 8, !tbaa !71
  %37 = getelementptr inbounds nuw %struct.key2any_ctx_st, ptr %36, i32 0, i32 0
  %38 = load ptr, ptr %37, align 8, !tbaa !73
  %39 = getelementptr inbounds nuw %struct.PROV_XOR_CTX, ptr %38, i32 0, i32 0
  %40 = load ptr, ptr %39, align 8, !tbaa !25
  %41 = load ptr, ptr %12, align 8, !tbaa !79
  %42 = call ptr @BIO_new_from_core_bio(ptr noundef %40, ptr noundef %41)
  store ptr %42, ptr %23, align 8, !tbaa !85
  %43 = load ptr, ptr %23, align 8, !tbaa !85
  %44 = icmp ne ptr %43, null
  br i1 %44, label %45, label %61

45:                                               ; preds = %35
  %46 = load ptr, ptr %17, align 8, !tbaa !13
  %47 = load ptr, ptr %11, align 8, !tbaa !71
  %48 = getelementptr inbounds nuw %struct.key2any_ctx_st, ptr %47, i32 0, i32 4
  store ptr %46, ptr %48, align 8, !tbaa !87
  %49 = load ptr, ptr %18, align 8, !tbaa !13
  %50 = load ptr, ptr %11, align 8, !tbaa !71
  %51 = getelementptr inbounds nuw %struct.key2any_ctx_st, ptr %50, i32 0, i32 5
  store ptr %49, ptr %51, align 8, !tbaa !88
  %52 = load ptr, ptr %16, align 8, !tbaa !13
  %53 = load ptr, ptr %23, align 8, !tbaa !85
  %54 = load ptr, ptr %13, align 8, !tbaa !13
  %55 = load i32, ptr %22, align 4, !tbaa !27
  %56 = load ptr, ptr %15, align 8, !tbaa !30
  %57 = load ptr, ptr %19, align 8, !tbaa !13
  %58 = load ptr, ptr %20, align 8, !tbaa !13
  %59 = load ptr, ptr %11, align 8, !tbaa !71
  %60 = call i32 %52(ptr noundef %53, ptr noundef %54, i32 noundef %55, ptr noundef %56, ptr noundef %57, ptr noundef %58, ptr noundef %59)
  store i32 %60, ptr %21, align 4, !tbaa !27
  br label %61

61:                                               ; preds = %45, %35
  %62 = load ptr, ptr %23, align 8, !tbaa !85
  %63 = call i32 @BIO_free(ptr noundef %62)
  call void @llvm.lifetime.end.p0(i64 8, ptr %23) #8
  br label %65

64:                                               ; preds = %32
  call void @ERR_new()
  call void @ERR_set_debug(ptr noundef @.str.2, i32 noundef 1856, ptr noundef @__func__.key2any_encode)
  call void (i32, i32, ptr, ...) @ERR_set_error(i32 noundef 128, i32 noundef 524550, ptr noundef null)
  br label %65

65:                                               ; preds = %64, %61
  br label %66

66:                                               ; preds = %65, %31
  %67 = load i32, ptr %21, align 4, !tbaa !27
  call void @llvm.lifetime.end.p0(i64 4, ptr %22) #8
  call void @llvm.lifetime.end.p0(i64 4, ptr %21) #8
  ret i32 %67
}

; Function Attrs: nounwind uwtable
define internal i32 @xorhmacsig_to_EncryptedPrivateKeyInfo_der_encode(ptr noundef %0, ptr noundef %1, ptr noundef %2, ptr noundef %3, i32 noundef %4, ptr noundef %5, ptr noundef %6) #0 {
  %8 = alloca i32, align 4
  %9 = alloca ptr, align 8
  %10 = alloca ptr, align 8
  %11 = alloca ptr, align 8
  %12 = alloca ptr, align 8
  %13 = alloca i32, align 4
  %14 = alloca ptr, align 8
  %15 = alloca ptr, align 8
  store ptr %0, ptr %9, align 8, !tbaa !13
  store ptr %1, ptr %10, align 8, !tbaa !79
  store ptr %2, ptr %11, align 8, !tbaa !13
  store ptr %3, ptr %12, align 8, !tbaa !43
  store i32 %4, ptr %13, align 4, !tbaa !27
  store ptr %5, ptr %14, align 8, !tbaa !13
  store ptr %6, ptr %15, align 8, !tbaa !13
  %16 = load ptr, ptr %12, align 8, !tbaa !43
  %17 = icmp ne ptr %16, null
  br i1 %17, label %18, label %19

18:                                               ; preds = %7
  call void @ERR_new()
  call void @ERR_set_debug(ptr noundef @.str.2, i32 noundef 2031, ptr noundef @__func__.xorhmacsig_to_EncryptedPrivateKeyInfo_der_encode)
  call void (i32, i32, ptr, ...) @ERR_set_error(i32 noundef 128, i32 noundef 524550, ptr noundef null)
  store i32 0, ptr %8, align 4
  br label %31

19:                                               ; preds = %7
  %20 = load i32, ptr %13, align 4, !tbaa !27
  %21 = and i32 %20, 1
  %22 = icmp ne i32 %21, 0
  br i1 %22, label %23, label %30

23:                                               ; preds = %19
  %24 = load ptr, ptr %9, align 8, !tbaa !13
  %25 = load ptr, ptr %10, align 8, !tbaa !79
  %26 = load ptr, ptr %11, align 8, !tbaa !13
  %27 = load ptr, ptr %14, align 8, !tbaa !13
  %28 = load ptr, ptr %15, align 8, !tbaa !13
  %29 = call i32 @key2any_encode(ptr noundef %24, ptr noundef %25, ptr noundef %26, ptr noundef @.str.1, ptr noundef @.str.36, ptr noundef @key_to_epki_der_priv_bio, ptr noundef %27, ptr noundef %28, ptr noundef @prepare_xorx_params, ptr noundef @xorx_pki_priv_to_der)
  store i32 %29, ptr %8, align 4
  br label %31

30:                                               ; preds = %19
  call void @ERR_new()
  call void @ERR_set_debug(ptr noundef @.str.2, i32 noundef 2031, ptr noundef @__func__.xorhmacsig_to_EncryptedPrivateKeyInfo_der_encode)
  call void (i32, i32, ptr, ...) @ERR_set_error(i32 noundef 128, i32 noundef 524550, ptr noundef null)
  store i32 0, ptr %8, align 4
  br label %31

31:                                               ; preds = %30, %23, %18
  %32 = load i32, ptr %8, align 4
  ret i32 %32
}